target datalayout = "e-m:e-p270:32:32-p271:32:32-p272:64:64-i64:64-i128:128-f80:128-n8:16:32:64-S128"
target triple = "x86_64-pc-linux-gnu"

%"class.std::_Function_base" = type { %"union.std::_Any_data", ptr }
%"union.std::_Any_data" = type { %"union.std::_Nocopy_types" }
%"union.std::_Nocopy_types" = type { { i64, i64 } }
%"class.std::optional.26" = type { %"struct.std::_Optional_base.27" }
%"struct.std::_Optional_base.27" = type { %"struct.std::_Optional_payload.29" }
%"struct.std::_Optional_payload.29" = type { %"struct.std::_Optional_payload_base.30" }
%"struct.std::_Optional_payload_base.30" = type { %"union.std::_Optional_payload_base<nix::TrustedFlag>::_Storage", i8 }
%"union.std::_Optional_payload_base<nix::TrustedFlag>::_Storage" = type { %"struct.std::_Optional_payload_base<nix::TrustedFlag>::_Empty_byte" }
%"struct.std::_Optional_payload_base<nix::TrustedFlag>::_Empty_byte" = type { i8 }
%"class.std::function.32" = type { %"class.std::_Function_base", ptr }
%class.anon = type { ptr, ptr, ptr }

; Function Attrs: mustprogress nounwind uwtable
define linkonce_odr noundef ptr @_ZNSt9_Any_data9_M_accessEv(ptr noundef nonnull align 8 dereferenceable(16) %0) #2 comdat align 2 {
  %2 = alloca ptr, align 8
  store ptr %0, ptr %2, align 8
  %3 = load ptr, ptr %2, align 8
  %4 = getelementptr inbounds [16 x i8], ptr %3, i64 0, i64 0
  ret ptr %4
}

; Function Attrs: mustprogress nounwind uwtable
define linkonce_odr void @_ZNSt22_Optional_payload_baseIN3nix11TrustedFlagEE8_StorageIS1_Lb1EEC2Ev(ptr noundef nonnull align 1 dereferenceable(1) %0) unnamed_addr #2 comdat align 2 {
  %2 = alloca ptr, align 8
  store ptr %0, ptr %2, align 8
  ret void
}

; Function Attrs: mustprogress nounwind uwtable
define internal noundef nonnull align 8 dereferenceable(8) ptr @"_ZNSt9_Any_data9_M_accessIPZL15main_nix_daemoniPPcE3$_0EERT_v"(ptr noundef nonnull align 8 dereferenceable(16) %0) #2 align 2 {
  %2 = alloca ptr, align 8
  store ptr %0, ptr %2, align 8
  %3 = load ptr, ptr %2, align 8
  %4 = call noundef ptr @_ZNSt9_Any_data9_M_accessEv(ptr noundef nonnull align 8 dereferenceable(16) %3) #1
  ret ptr %4
}

; Function Attrs: mustprogress nounwind uwtable
define linkonce_odr void @_ZNSt22_Optional_payload_baseIN3nix11TrustedFlagEEC2Ev(ptr noundef nonnull align 1 dereferenceable(2) %0) unnamed_addr #2 comdat align 2 {
  %2 = alloca ptr, align 8
  store ptr %0, ptr %2, align 8
  %3 = load ptr, ptr %2, align 8
  %4 = getelementptr inbounds %"struct.std::_Optional_payload_base.30", ptr %3, i32 0, i32 0
  call void @_ZNSt22_Optional_payload_baseIN3nix11TrustedFlagEE8_StorageIS1_Lb1EEC2Ev(ptr noundef nonnull align 1 dereferenceable(1) %4) #1
  %5 = getelementptr inbounds %"struct.std::_Optional_payload_base.30", ptr %3, i32 0, i32 1
  store i8 0, ptr %5, align 1
  ret void
}

; Function Attrs: mustprogress uwtable
define internal void @"_ZNSt14_Function_base13_Base_managerIZL15main_nix_daemoniPPcE3$_0E9_M_createIS3_EEvRSt9_Any_dataOT_St17integral_constantIbLb0EE"(ptr noundef nonnull align 8 dereferenceable(16) %0, ptr noundef nonnull align 8 dereferenceable(24) %1) #5 align 2 {
  %3 = alloca ptr, align 8
  %4 = alloca ptr, align 8
  store ptr %0, ptr %3, align 8
  store ptr %1, ptr %4, align 8
  %5 = call noalias noundef nonnull ptr @_Znwm(i64 noundef 24) #24
  %6 = load ptr, ptr %4, align 8
  call void @llvm.memcpy.p0.p0.i64(ptr align 16 %5, ptr align 8 %6, i64 24, i1 false)
  %7 = load ptr, ptr %3, align 8
  %8 = call noundef nonnull align 8 dereferenceable(8) ptr @"_ZNSt9_Any_data9_M_accessIPZL15main_nix_daemoniPPcE3$_0EERT_v"(ptr noundef nonnull align 8 dereferenceable(16) %7) #1
  store ptr %5, ptr %8, align 8
  ret void
}

; Function Attrs: mustprogress nounwind uwtable
define linkonce_odr void @_ZNSt17_Optional_payloadIN3nix11TrustedFlagELb1ELb1ELb1EEC2Ev(ptr noundef nonnull align 1 dereferenceable(2) %0) unnamed_addr #2 comdat align 2 {
  %2 = alloca ptr, align 8
  store ptr %0, ptr %2, align 8
  %3 = load ptr, ptr %2, align 8
  call void @_ZNSt22_Optional_payload_baseIN3nix11TrustedFlagEEC2Ev(ptr noundef nonnull align 1 dereferenceable(2) %3) #1
  ret void
}

; Function Attrs: mustprogress nounwind uwtable
define linkonce_odr void @_ZNSt14_Function_baseD2Ev(ptr noundef nonnull align 8 dereferenceable(24) %0) unnamed_addr #2 comdat align 2 personality ptr @__gxx_personality_v0 {
  %2 = alloca ptr, align 8
  store ptr %0, ptr %2, align 8
  %3 = load ptr, ptr %2, align 8
  %4 = getelementptr inbounds %"class.std::_Function_base", ptr %3, i32 0, i32 1
  %5 = load ptr, ptr %4, align 8
  %6 = icmp ne ptr %5, null
  br i1 %6, label %7, label %14

7:                                                ; preds = %1
  %8 = getelementptr inbounds %"class.std::_Function_base", ptr %3, i32 0, i32 1
  %9 = load ptr, ptr %8, align 8
  %10 = getelementptr inbounds %"class.std::_Function_base", ptr %3, i32 0, i32 0
  %11 = getelementptr inbounds %"class.std::_Function_base", ptr %3, i32 0, i32 0
  %12 = invoke noundef zeroext i1 %9(ptr noundef nonnull align 8 dereferenceable(16) %10, ptr noundef nonnull align 8 dereferenceable(16) %11, i32 noundef 3)
          to label %13 unwind label %15

13:                                               ; preds = %7
  br label %14

14:                                               ; preds = %13, %1
  ret void

15:                                               ; preds = %7
  %16 = landingpad { ptr, i32 }
          catch ptr null
  %17 = extractvalue { ptr, i32 } %16, 0
  call void @__clang_call_terminate(ptr %17) #23
  unreachable
}

; Function Attrs: mustprogress uwtable
define internal void @"_ZNSt14_Function_base13_Base_managerIZL15main_nix_daemoniPPcE3$_0E15_M_init_functorIS3_EEvRSt9_Any_dataOT_"(ptr noundef nonnull align 8 dereferenceable(16) %0, ptr noundef nonnull align 8 dereferenceable(24) %1) #5 align 2 {
  %3 = alloca ptr, align 8
  %4 = alloca ptr, align 8
  store ptr %0, ptr %3, align 8
  store ptr %1, ptr %4, align 8
  %5 = load ptr, ptr %3, align 8
  %6 = load ptr, ptr %4, align 8
  call void @"_ZNSt14_Function_base13_Base_managerIZL15main_nix_daemoniPPcE3$_0E9_M_createIS3_EEvRSt9_Any_dataOT_St17integral_constantIbLb0EE"(ptr noundef nonnull align 8 dereferenceable(16) %5, ptr noundef nonnull align 8 dereferenceable(24) %6)
  ret void
}

; Function Attrs: mustprogress nounwind uwtable
define internal noundef zeroext i1 @"_ZNSt14_Function_base13_Base_managerIZL15main_nix_daemoniPPcE3$_0E21_M_not_empty_functionIS3_EEbRKT_"(ptr noundef nonnull align 8 dereferenceable(24) %0) #2 align 2 {
  %2 = alloca ptr, align 8
  store ptr %0, ptr %2, align 8
  ret i1 true
}

; Function Attrs: mustprogress nounwind uwtable
define linkonce_odr void @_ZNSt14_Function_baseC2Ev(ptr noundef nonnull align 8 dereferenceable(24) %0) unnamed_addr #2 comdat align 2 {
  %2 = alloca ptr, align 8
  store ptr %0, ptr %2, align 8
  %3 = load ptr, ptr %2, align 8
  %4 = getelementptr inbounds %"class.std::_Function_base", ptr %3, i32 0, i32 0
  store ptr null, ptr %4, align 8
  %5 = getelementptr inbounds %"class.std::_Function_base", ptr %3, i32 0, i32 1
  store ptr null, ptr %5, align 8
  ret void
}

; Function Attrs: mustprogress nounwind uwtable
define linkonce_odr void @_ZNSt14_Optional_baseIN3nix11TrustedFlagELb1ELb1EEC2Ev(ptr noundef nonnull align 1 dereferenceable(2) %0) unnamed_addr #2 comdat align 2 {
  %2 = alloca ptr, align 8
  store ptr %0, ptr %2, align 8
  %3 = load ptr, ptr %2, align 8
  %4 = getelementptr inbounds %"struct.std::_Optional_base.27", ptr %3, i32 0, i32 0
  call void @_ZNSt17_Optional_payloadIN3nix11TrustedFlagELb1ELb1ELb1EEC2Ev(ptr noundef nonnull align 1 dereferenceable(2) %4) #1
  ret void
}

; Function Attrs: mustprogress nounwind uwtable
define linkonce_odr void @_ZNSt8functionIFbRSt14_List_iteratorINSt7__cxx1112basic_stringIcSt11char_traitsIcESaIcEEEERKS7_EED2Ev(ptr noundef nonnull align 8 dereferenceable(32) %0) unnamed_addr #2 comdat align 2 {
  %2 = alloca ptr, align 8
  store ptr %0, ptr %2, align 8
  %3 = load ptr, ptr %2, align 8
  call void @_ZNSt14_Function_baseD2Ev(ptr noundef nonnull align 8 dereferenceable(24) %3) #1
  ret void
}

; Function Attrs: mustprogress uwtable
define internal void @"_ZNSt8functionIFbRSt14_List_iteratorINSt7__cxx1112basic_stringIcSt11char_traitsIcESaIcEEEERKS7_EEC2IZL15main_nix_daemoniPPcE3$_0vEEOT_"(ptr noundef nonnull align 8 dereferenceable(32) %0, ptr noundef nonnull align 8 dereferenceable(24) %1) unnamed_addr #5 align 2 personality ptr @__gxx_personality_v0 {
  %3 = alloca ptr, align 8
  %4 = alloca ptr, align 8
  %5 = alloca ptr, align 8
  %6 = alloca i32, align 4
  store ptr %0, ptr %3, align 8
  store ptr %1, ptr %4, align 8
  %7 = load ptr, ptr %3, align 8
  %8 = getelementptr inbounds i8, ptr %7, i64 0
  call void @llvm.memset.p0.i64(ptr align 8 %8, i8 0, i64 24, i1 false)
  call void @_ZNSt14_Function_baseC2Ev(ptr noundef nonnull align 8 dereferenceable(24) %7) #1
  %9 = getelementptr inbounds %"class.std::function.32", ptr %7, i32 0, i32 1
  store ptr null, ptr %9, align 8
  %10 = load ptr, ptr %4, align 8
  %11 = call noundef zeroext i1 @"_ZNSt14_Function_base13_Base_managerIZL15main_nix_daemoniPPcE3$_0E21_M_not_empty_functionIS3_EEbRKT_"(ptr noundef nonnull align 8 dereferenceable(24) %10) #1
  br i1 %11, label %12, label %22

12:                                               ; preds = %2
  %13 = getelementptr inbounds %"class.std::_Function_base", ptr %7, i32 0, i32 0
  %14 = load ptr, ptr %4, align 8
  invoke void @"_ZNSt14_Function_base13_Base_managerIZL15main_nix_daemoniPPcE3$_0E15_M_init_functorIS3_EEvRSt9_Any_dataOT_"(ptr noundef nonnull align 8 dereferenceable(16) %13, ptr noundef nonnull align 8 dereferenceable(24) %14)
          to label %15 unwind label %18

15:                                               ; preds = %12
  %16 = getelementptr inbounds %"class.std::function.32", ptr %7, i32 0, i32 1
  store ptr @"_ZNSt17_Function_handlerIFbRSt14_List_iteratorINSt7__cxx1112basic_stringIcSt11char_traitsIcESaIcEEEERKS7_EZL15main_nix_daemoniPPcE3$_0E9_M_invokeERKSt9_Any_dataS8_SA_", ptr %16, align 8
  %17 = getelementptr inbounds %"class.std::_Function_base", ptr %7, i32 0, i32 1
  store ptr @"_ZNSt17_Function_handlerIFbRSt14_List_iteratorINSt7__cxx1112basic_stringIcSt11char_traitsIcESaIcEEEERKS7_EZL15main_nix_daemoniPPcE3$_0E10_M_managerERSt9_Any_dataRKSG_St18_Manager_operation", ptr %17, align 8
  br label %22

18:                                               ; preds = %12
  %19 = landingpad { ptr, i32 }
          cleanup
  %20 = extractvalue { ptr, i32 } %19, 0
  store ptr %20, ptr %5, align 8
  %21 = extractvalue { ptr, i32 } %19, 1
  store i32 %21, ptr %6, align 4
  call void @_ZNSt14_Function_baseD2Ev(ptr noundef nonnull align 8 dereferenceable(24) %7) #1
  br label %23

22:                                               ; preds = %15, %2
  ret void

23:                                               ; preds = %18
  %24 = load ptr, ptr %5, align 8
  %25 = load i32, ptr %6, align 4
  %26 = insertvalue { ptr, i32 } poison, ptr %24, 0
  %27 = insertvalue { ptr, i32 } %26, i32 %25, 1
  resume { ptr, i32 } %27
}

; Function Attrs: mustprogress nounwind uwtable
define linkonce_odr void @_ZNSt8optionalIN3nix11TrustedFlagEEC2ESt9nullopt_t(ptr noundef nonnull align 1 dereferenceable(2) %0) unnamed_addr #2 comdat align 2 {
  %2 = alloca ptr, align 8
  store ptr %0, ptr %2, align 8
  %3 = load ptr, ptr %2, align 8
  call void @_ZNSt14_Optional_baseIN3nix11TrustedFlagELb1ELb1EEC2Ev(ptr noundef nonnull align 1 dereferenceable(2) %3) #1
  ret void
}

; Function Attrs: mustprogress uwtable
define internal noundef i32 @_ZL15main_nix_daemoniPPc(i32 noundef %0, ptr noundef %1) #5 personality ptr @__gxx_personality_v0 {
  %3 = alloca i32, align 4
  %4 = alloca ptr, align 8
  %5 = alloca i8, align 1
  %6 = alloca %"class.std::optional.26", align 1
  %7 = alloca i8, align 1
  %8 = alloca %"class.std::function.32", align 8
  %9 = alloca %class.anon, align 8
  %10 = alloca ptr, align 8
  %11 = alloca i32, align 4
  %12 = alloca %"class.std::optional.26", align 1
  store i32 %0, ptr %3, align 4
  store ptr %1, ptr %4, align 8
  store i8 0, ptr %5, align 1
  call void @_ZNSt8optionalIN3nix11TrustedFlagEEC2ESt9nullopt_t(ptr noundef nonnull align 1 dereferenceable(2) %6) #1
  store i8 0, ptr %7, align 1
  %13 = load i32, ptr %3, align 4
  %14 = load ptr, ptr %4, align 8
  %15 = getelementptr inbounds %class.anon, ptr %9, i32 0, i32 0
  store ptr %5, ptr %15, align 8
  %16 = getelementptr inbounds %class.anon, ptr %9, i32 0, i32 1
  store ptr %6, ptr %16, align 8
  %17 = getelementptr inbounds %class.anon, ptr %9, i32 0, i32 2
  store ptr %7, ptr %17, align 8
  call void @"_ZNSt8functionIFbRSt14_List_iteratorINSt7__cxx1112basic_stringIcSt11char_traitsIcESaIcEEEERKS7_EEC2IZL15main_nix_daemoniPPcE3$_0vEEOT_"(ptr noundef nonnull align 8 dereferenceable(32) %8, ptr noundef nonnull align 8 dereferenceable(24) %9)
  invoke void @_ZN3nix12parseCmdLineEiPPcSt8functionIFbRSt14_List_iteratorINSt7__cxx1112basic_stringIcSt11char_traitsIcESaIcEEEERKSA_EE(i32 noundef %13, ptr noundef %14, ptr noundef %8)
          to label %18 unwind label %27

18:                                               ; preds = %2
  call void @_ZNSt8functionIFbRSt14_List_iteratorINSt7__cxx1112basic_stringIcSt11char_traitsIcESaIcEEEERKS7_EED2Ev(ptr noundef nonnull align 8 dereferenceable(32) %8) #1
  %19 = load i8, ptr %5, align 1
  %20 = trunc i8 %19 to i1
  call void @llvm.memcpy.p0.p0.i64(ptr align 1 %12, ptr align 1 %6, i64 2, i1 false)
  %21 = load i8, ptr %7, align 1
  %22 = trunc i8 %21 to i1
  %23 = getelementptr inbounds %"class.std::optional.26", ptr %12, i32 0, i32 0
  %24 = getelementptr inbounds %"struct.std::_Optional_base.27", ptr %23, i32 0, i32 0
  %25 = getelementptr inbounds %"struct.std::_Optional_payload.29", ptr %24, i32 0, i32 0
  %26 = load i16, ptr %25, align 1
  call void @_ZL9runDaemonbSt8optionalIN3nix11TrustedFlagEEb(i1 noundef zeroext %20, i16 %26, i1 noundef zeroext %22)
  ret i32 0

27:                                               ; preds = %2
  %28 = landingpad { ptr, i32 }
          cleanup
  %29 = extractvalue { ptr, i32 } %28, 0
  store ptr %29, ptr %10, align 8
  %30 = extractvalue { ptr, i32 } %28, 1
  store i32 %30, ptr %11, align 4
  call void @_ZNSt8functionIFbRSt14_List_iteratorINSt7__cxx1112basic_stringIcSt11char_traitsIcESaIcEEEERKS7_EED2Ev(ptr noundef nonnull align 8 dereferenceable(32) %8) #1
  br label %31

31:                                               ; preds = %27
  %32 = load ptr, ptr %10, align 8
  %33 = load i32, ptr %11, align 4
  %34 = insertvalue { ptr, i32 } poison, ptr %32, 0
  %35 = insertvalue { ptr, i32 } %34, i32 %33, 1
  resume { ptr, i32 } %35
}