; Function Attrs: mustprogress uwtable
define internal noundef i32 @_ZL15main_nix_daemoniPPc(i32 noundef %0, ptr noundef %1) #4 personality ptr @__gxx_personality_v0 {
  %3 = alloca i8, align 1
  %4 = alloca %"class.std::optional.26", align 2
  %5 = alloca i8, align 1
  %6 = alloca %"class.std::function.32", align 8
  store i8 0, ptr %3, align 1
  %7 = getelementptr inbounds i8, ptr %4, i64 1
  store i8 0, ptr %7, align 1
  store i8 0, ptr %5, align 1
  %8 = getelementptr inbounds i8, ptr %6, i64 16
  %9 = getelementptr inbounds i8, ptr %6, i64 24
  %10 = getelementptr inbounds i8, ptr %6, i64 8
  store i64 0, ptr %10, align 8
  %11 = tail call noalias noundef nonnull dereferenceable(24) ptr @_Znwm(i64 noundef 24) #33
  store ptr %3, ptr %11, align 16
  %.sroa.2.0..sroa_idx = getelementptr inbounds i8, ptr %11, i64 8
  store ptr %4, ptr %.sroa.2.0..sroa_idx, align 8
  %.sroa.3.0..sroa_idx = getelementptr inbounds i8, ptr %11, i64 16
  store ptr %5, ptr %.sroa.3.0..sroa_idx, align 16
  store ptr %11, ptr %6, align 8
  store ptr @"_ZNSt17_Function_handlerIFbRSt14_List_iteratorINSt7__cxx1112basic_stringIcSt11char_traitsIcESaIcEEEERKS7_EZL15main_nix_daemoniPPcE3$_0E9_M_invokeERKSt9_Any_dataS8_SA_", ptr %9, align 8
  store ptr @"_ZNSt17_Function_handlerIFbRSt14_List_iteratorINSt7__cxx1112basic_stringIcSt11char_traitsIcESaIcEEEERKS7_EZL15main_nix_daemoniPPcE3$_0E10_M_managerERSt9_Any_dataRKSG_St18_Manager_operation", ptr %8, align 8
  invoke void @_ZN3nix12parseCmdLineEiPPcSt8functionIFbRSt14_List_iteratorINSt7__cxx1112basic_stringIcSt11char_traitsIcESaIcEEEERKSA_EE(i32 noundef %0, ptr noundef %1, ptr noundef nonnull %6)
          to label %12 unwind label %25

12:                                               ; preds = %2
  %13 = load ptr, ptr %8, align 8
  %.not.i.i = icmp eq ptr %13, null
  br i1 %.not.i.i, label %_ZNSt8functionIFbRSt14_List_iteratorINSt7__cxx1112basic_stringIcSt11char_traitsIcESaIcEEEERKS7_EED2Ev.exit, label %14

14:                                               ; preds = %12
  %15 = invoke noundef zeroext i1 %13(ptr noundef nonnull align 8 dereferenceable(16) %6, ptr noundef nonnull align 8 dereferenceable(16) %6, i32 noundef 3)
          to label %_ZNSt8functionIFbRSt14_List_iteratorINSt7__cxx1112basic_stringIcSt11char_traitsIcESaIcEEEERKS7_EED2Ev.exit unwind label %16

16:                                               ; preds = %14
  %17 = landingpad { ptr, i32 }
          catch ptr null
  %18 = extractvalue { ptr, i32 } %17, 0
  call void @__clang_call_terminate(ptr %18) #35
  unreachable

_ZNSt8functionIFbRSt14_List_iteratorINSt7__cxx1112basic_stringIcSt11char_traitsIcESaIcEEEERKS7_EED2Ev.exit: ; preds = %12, %14
  %19 = load i8, ptr %3, align 1
  %20 = and i8 %19, 1
  %21 = icmp ne i8 %20, 0
  %.sroa.0.0.copyload = load i16, ptr %4, align 2
  %22 = load i8, ptr %5, align 1
  %23 = and i8 %22, 1
  %24 = icmp ne i8 %23, 0
  call fastcc void @_ZL9runDaemonbSt8optionalIN3nix11TrustedFlagEEb(i1 noundef zeroext %21, i16 %.sroa.0.0.copyload, i1 noundef zeroext %24)
  ret i32 0

25:                                               ; preds = %2
  %26 = landingpad { ptr, i32 }
          cleanup
  %27 = load ptr, ptr %8, align 8
  %.not.i.i3 = icmp eq ptr %27, null
  br i1 %.not.i.i3, label %_ZNSt8functionIFbRSt14_List_iteratorINSt7__cxx1112basic_stringIcSt11char_traitsIcESaIcEEEERKS7_EED2Ev.exit4, label %28

28:                                               ; preds = %25
  %29 = invoke noundef zeroext i1 %27(ptr noundef nonnull align 8 dereferenceable(16) %6, ptr noundef nonnull align 8 dereferenceable(16) %6, i32 noundef 3)
          to label %_ZNSt8functionIFbRSt14_List_iteratorINSt7__cxx1112basic_stringIcSt11char_traitsIcESaIcEEEERKS7_EED2Ev.exit4 unwind label %30

30:                                               ; preds = %28
  %31 = landingpad { ptr, i32 }
          catch ptr null
  %32 = extractvalue { ptr, i32 } %31, 0
  call void @__clang_call_terminate(ptr %32) #35
  unreachable

_ZNSt8functionIFbRSt14_List_iteratorINSt7__cxx1112basic_stringIcSt11char_traitsIcESaIcEEEERKS7_EED2Ev.exit4: ; preds = %25, %28
  resume { ptr, i32 } %26
}